; Function Attrs: mustprogress nofree norecurse nosync nounwind willreturn memory(argmem: readwrite) uwtable
define void @_ZN5folly4test16ThreadTimestamps5clearEv(ptr noundef nonnull align 8 captures(none) dereferenceable(24) %0) local_unnamed_addr #12 align 2 personality ptr @__gxx_personality_v0 {
  %2 = load ptr, ptr %0, align 8, !tbaa !30
  %3 = getelementptr inbounds nuw i8, ptr %0, i64 8
  %4 = load ptr, ptr %3, align 8, !tbaa !27
  %.not.i.i = icmp eq ptr %4, %2
  br i1 %.not.i.i, label %_ZNSt6vectorIN5folly4test15DSchedTimestampESaIS2_EE5clearEv.exit, label %5

5:                                                ; preds = %1
  store ptr %2, ptr %3, align 8, !tbaa !27
  br label %_ZNSt6vectorIN5folly4test15DSchedTimestampESaIS2_EE5clearEv.exit

_ZNSt6vectorIN5folly4test15DSchedTimestampESaIS2_EE5clearEv.exit: ; preds = %1, %5
  ret void
}